target datalayout = "e-m:e-p270:32:32-p271:32:32-p272:64:64-i64:64-i128:128-f80:128-n8:16:32:64-S128"
target triple = "x86_64-unknown-linux-gnu"

%struct.PCIDevice = type { %struct.DeviceState, i8, i8, ptr, ptr, ptr, ptr, ptr, i32, %struct.PCIReqIDCache, [64 x i8], [7 x %struct.PCIIORegion], %struct.AddressSpace, %struct.MemoryRegion, %struct.MemoryRegion, ptr, ptr, [3 x ptr], i8, i8, i32, i8, i32, ptr, ptr, ptr, ptr, ptr, ptr, %struct.MemoryRegion, %struct.MemoryRegion, %struct.MemoryRegion, ptr, i8, i32, i8, %struct.PCIExpressDevice, ptr, ptr, i32, i8, %struct.MemoryRegion, i32, ptr, ptr, ptr, ptr, ptr, i32 }
%struct.DeviceState = type { %struct.Object, ptr, ptr, i8, i8, i64, ptr, i32, i8, ptr, %struct.NamedGPIOListHead, %struct.NamedClockListHead, %struct.BusStateHead, i32, i32, i32, %struct.ResettableState, ptr, %struct.MemReentrancyGuard }
%struct.Object = type { ptr, ptr, ptr, i32, ptr }
%struct.NamedGPIOListHead = type { ptr }
%struct.NamedClockListHead = type { ptr }
%struct.BusStateHead = type { ptr }
%struct.ResettableState = type { i32, i8, i8 }
%struct.MemReentrancyGuard = type { i8 }
%struct.PCIReqIDCache = type { ptr, i32 }
%struct.PCIIORegion = type { i64, i64, i8, ptr, ptr }
%struct.AddressSpace = type { %struct.rcu_head, ptr, ptr, ptr, i32, i32, ptr, %union.anon, %union.anon.0 }
%struct.rcu_head = type { ptr, ptr }
%union.anon = type { %struct.QTailQLink }
%struct.QTailQLink = type { ptr, ptr }
%union.anon.0 = type { %struct.QTailQLink }
%struct.PCIExpressDevice = type { i8, i8, i8, i16, %struct.PCIEAERLog, i16, i16, i16, %struct.PCIESriovPF, %struct.PCIESriovVF }
%struct.PCIEAERLog = type { i16, i16, ptr }
%struct.PCIESriovPF = type { i16, [7 x i8], ptr, ptr }
%struct.PCIESriovVF = type { ptr, i16 }
%struct.MemoryRegion = type { %struct.Object, i8, i8, i8, i8, i8, i8, i8, i8, i8, i8, ptr, ptr, ptr, ptr, ptr, ptr, i32, i128, i64, ptr, i64, i8, i8, i8, i8, i8, ptr, i64, i32, %union.anon.1, %union.anon.2, %union.anon.3, ptr, i32, ptr, ptr, i8 }
%union.anon.1 = type { %struct.QTailQLink }
%union.anon.2 = type { %struct.QTailQLink }
%union.anon.3 = type { %struct.QTailQLink }

; Function Attrs: nounwind sspstrong uwtable
define dso_local i32 @msix_enabled(ptr noundef %dev) #0 {
entry:
  %dev.addr = alloca ptr, align 8
  store ptr %dev, ptr %dev.addr, align 8
  %0 = load ptr, ptr %dev.addr, align 8
  %cap_present = getelementptr inbounds %struct.PCIDevice, ptr %0, i32 0, i32 20
  %1 = load i32, ptr %cap_present, align 4
  %and = and i32 %1, 2
  %tobool = icmp ne i32 %and, 0
  br i1 %tobool, label %land.rhs, label %land.end

land.rhs:                                         ; preds = %entry
  %2 = load ptr, ptr %dev.addr, align 8
  %config = getelementptr inbounds %struct.PCIDevice, ptr %2, i32 0, i32 3
  %3 = load ptr, ptr %config, align 8
  %4 = load ptr, ptr %dev.addr, align 8
  %msix_cap = getelementptr inbounds %struct.PCIDevice, ptr %4, i32 0, i32 21
  %5 = load i8, ptr %msix_cap, align 16
  %conv = zext i8 %5 to i32
  %add = add i32 %conv, 3
  %idxprom = sext i32 %add to i64
  %arrayidx = getelementptr i8, ptr %3, i64 %idxprom
  %6 = load i8, ptr %arrayidx, align 1
  %conv1 = zext i8 %6 to i32
  %and2 = and i32 %conv1, 128
  %tobool3 = icmp ne i32 %and2, 0
  br label %land.end

land.end:                                         ; preds = %land.rhs, %entry
  %7 = phi i1 [ false, %entry ], [ %tobool3, %land.rhs ]
  %land.ext = zext i1 %7 to i32
  ret i32 %land.ext
}