; Function Attrs: mustprogress nofree norecurse nosync nounwind sspstrong willreturn memory(read, inaccessiblemem: none) uwtable
define dso_local range(i32 0, 2) i32 @msix_enabled(ptr noundef readonly captures(none) %dev) local_unnamed_addr #4 {
entry:
  %cap_present = getelementptr inbounds nuw i8, ptr %dev, i64 1260
  %0 = load i32, ptr %cap_present, align 4
  %and = and i32 %0, 2
  %tobool.not = icmp eq i32 %and, 0
  br i1 %tobool.not, label %land.end, label %land.rhs

land.rhs:                                         ; preds = %entry
  %config = getelementptr inbounds nuw i8, ptr %dev, i64 168
  %1 = load ptr, ptr %config, align 8
  %msix_cap = getelementptr inbounds nuw i8, ptr %dev, i64 1264
  %2 = load i8, ptr %msix_cap, align 16
  %conv = zext i8 %2 to i64
  %3 = getelementptr i8, ptr %1, i64 %conv
  %arrayidx = getelementptr i8, ptr %3, i64 3
  %4 = load i8, ptr %arrayidx, align 1
  %.lobit = lshr i8 %4, 7
  %5 = zext nneg i8 %.lobit to i32
  br label %land.end

land.end:                                         ; preds = %land.rhs, %entry
  %land.ext = phi i32 [ 0, %entry ], [ %5, %land.rhs ]
  ret i32 %land.ext
}